; Function Attrs: nofree norecurse nosync nounwind memory(argmem: write) uwtable
define internal void @setup_5x5(i32 %0, ptr noundef writeonly captures(none) %1, ptr noundef %2, i32 noundef %3, i32 noundef %4, i32 noundef %5, i32 noundef %6, i32 noundef %7, i32 noundef %8) #7 {
  %10 = add i32 %4, -2
  %11 = shl nsw i32 %5, 1
  %12 = shl nsw i32 %7, 1
  br label %13

13:                                               ; preds = %9, %13
  %indvars.iv = phi i64 [ 0, %9 ], [ %indvars.iv.next, %13 ]
  %.lhs.trunc = trunc i64 %indvars.iv to i8
  %14 = urem i8 %.lhs.trunc, 5
  %.zext = zext nneg i8 %14 to i32
  %15 = add i32 %10, %.zext
  %16 = tail call i32 @llvm.abs.i32(i32 %15, i1 true)
  %17 = udiv i8 %.lhs.trunc, 5
  %.zext41 = zext nneg i8 %17 to i32
  %18 = add nsw i32 %6, %.zext41
  %19 = icmp sgt i32 %18, 1
  %20 = add nsw i32 %18, -2
  %21 = sub nsw i32 2, %18
  %22 = select i1 %19, i32 %20, i32 %21
  %.not = icmp slt i32 %16, %5
  %23 = xor i32 %16, -1
  %24 = add i32 %11, %23
  %25 = select i1 %.not, i32 %16, i32 %24
  %.not39 = icmp slt i32 %22, %7
  %26 = xor i32 %22, -1
  %27 = add i32 %12, %26
  %28 = select i1 %.not39, i32 %22, i32 %27
  %29 = mul nsw i32 %25, %8
  %30 = sext i32 %29 to i64
  %31 = getelementptr inbounds i8, ptr %2, i64 %30
  %32 = mul nsw i32 %28, %3
  %33 = sext i32 %32 to i64
  %34 = getelementptr inbounds i8, ptr %31, i64 %33
  %35 = getelementptr inbounds nuw ptr, ptr %1, i64 %indvars.iv
  store ptr %34, ptr %35, align 8, !tbaa !46
  %indvars.iv.next = add nuw nsw i64 %indvars.iv, 1
  %exitcond.not = icmp eq i64 %indvars.iv.next, 25
  br i1 %exitcond.not, label %36, label %13, !llvm.loop !95

36:                                               ; preds = %13
  ret void
}